target datalayout = "e-m:e-p270:32:32-p271:32:32-p272:64:64-i64:64-i128:128-f80:128-n8:16:32:64-S128"
target triple = "x86_64-pc-linux-gnu"

%"class.grpc_core::HPackEncoderTable" = type { i32, i32, i32, i32, %"class.std::vector" }
%"class.std::vector" = type { %"struct.std::_Vector_base" }
%"struct.std::_Vector_base" = type { %"struct.std::_Vector_base<unsigned short, std::allocator<unsigned short>>::_Vector_impl" }
%"struct.std::_Vector_base<unsigned short, std::allocator<unsigned short>>::_Vector_impl" = type { %"struct.std::_Vector_base<unsigned short, std::allocator<unsigned short>>::_Vector_impl_data" }
%"struct.std::_Vector_base<unsigned short, std::allocator<unsigned short>>::_Vector_impl_data" = type { ptr, ptr, ptr }

; Function Attrs: inlinehint mustprogress nounwind uwtable
define linkonce_odr noundef nonnull align 8 dereferenceable(8) ptr @_ZSt3maxImERKT_S2_S2_(ptr noundef nonnull align 8 dereferenceable(8) %0, ptr noundef nonnull align 8 dereferenceable(8) %1) #6 comdat {
  %3 = alloca ptr, align 8
  %4 = alloca ptr, align 8
  %5 = alloca ptr, align 8
  store ptr %0, ptr %4, align 8, !tbaa !49
  store ptr %1, ptr %5, align 8, !tbaa !49
  %6 = load ptr, ptr %4, align 8, !tbaa !49
  %7 = load i64, ptr %6, align 8, !tbaa !8
  %8 = load ptr, ptr %5, align 8, !tbaa !49
  %9 = load i64, ptr %8, align 8, !tbaa !8
  %10 = icmp ult i64 %7, %9
  br i1 %10, label %11, label %13

11:                                               ; preds = %2
  %12 = load ptr, ptr %5, align 8, !tbaa !49
  store ptr %12, ptr %3, align 8
  br label %15

13:                                               ; preds = %2
  %14 = load ptr, ptr %4, align 8, !tbaa !49
  store ptr %14, ptr %3, align 8
  br label %15

15:                                               ; preds = %13, %11
  %16 = load ptr, ptr %3, align 8
  ret ptr %16
}

; Function Attrs: mustprogress nounwind uwtable
define linkonce_odr noundef i64 @_ZNKSt6vectorItSaItEE4sizeEv(ptr noundef nonnull align 8 dereferenceable(24) %0) #2 comdat align 2 {
  %2 = alloca ptr, align 8
  store ptr %0, ptr %2, align 8, !tbaa !32
  %3 = load ptr, ptr %2, align 8
  %4 = getelementptr inbounds nuw %"struct.std::_Vector_base", ptr %3, i32 0, i32 0
  %5 = getelementptr inbounds nuw %"struct.std::_Vector_base<unsigned short, std::allocator<unsigned short>>::_Vector_impl_data", ptr %4, i32 0, i32 1
  %6 = load ptr, ptr %5, align 8, !tbaa !34
  %7 = getelementptr inbounds nuw %"struct.std::_Vector_base", ptr %3, i32 0, i32 0
  %8 = getelementptr inbounds nuw %"struct.std::_Vector_base<unsigned short, std::allocator<unsigned short>>::_Vector_impl_data", ptr %7, i32 0, i32 0
  %9 = load ptr, ptr %8, align 8, !tbaa !35
  %10 = ptrtoint ptr %6 to i64
  %11 = ptrtoint ptr %9 to i64
  %12 = sub i64 %10, %11
  %13 = sdiv exact i64 %12, 2
  ret i64 %13
}

; Function Attrs: mustprogress nounwind uwtable
define internal noundef i32 @_ZN9grpc_core15hpack_constantsL15EntriesForBytesEj(i32 noundef %0) #2 {
  %2 = alloca i32, align 4
  store i32 %0, ptr %2, align 4, !tbaa !21
  %3 = load i32, ptr %2, align 4, !tbaa !21
  %4 = add i32 %3, 32
  %5 = sub i32 %4, 1
  %6 = udiv i32 %5, 32
  ret i32 %6
}

; Function Attrs: mustprogress uwtable
define noundef zeroext i1 @_ZN9grpc_core17HPackEncoderTable10SetMaxSizeEj(ptr noundef nonnull align 8 dereferenceable(40) %0, i32 noundef %1) #0 align 2 {
  %3 = alloca i1, align 1
  %4 = alloca ptr, align 8
  %5 = alloca i32, align 4
  %6 = alloca i64, align 8
  %7 = alloca i64, align 8
  store ptr %0, ptr %4, align 8, !tbaa !3
  store i32 %1, ptr %5, align 4, !tbaa !21
  %8 = load ptr, ptr %4, align 8
  %9 = load i32, ptr %5, align 4, !tbaa !21
  %10 = getelementptr inbounds nuw %"class.grpc_core::HPackEncoderTable", ptr %8, i32 0, i32 1
  %11 = load i32, ptr %10, align 4, !tbaa !22
  %12 = icmp eq i32 %9, %11
  br i1 %12, label %13, label %14

13:                                               ; preds = %2
  store i1 false, ptr %3, align 1
  br label %45

14:                                               ; preds = %2
  br label %15

15:                                               ; preds = %26, %14
  %16 = getelementptr inbounds nuw %"class.grpc_core::HPackEncoderTable", ptr %8, i32 0, i32 3
  %17 = load i32, ptr %16, align 4, !tbaa !23
  %18 = icmp ugt i32 %17, 0
  br i1 %18, label %19, label %24

19:                                               ; preds = %15
  %20 = getelementptr inbounds nuw %"class.grpc_core::HPackEncoderTable", ptr %8, i32 0, i32 3
  %21 = load i32, ptr %20, align 4, !tbaa !23
  %22 = load i32, ptr %5, align 4, !tbaa !21
  %23 = icmp ugt i32 %21, %22
  br label %24

24:                                               ; preds = %19, %15
  %25 = phi i1 [ false, %15 ], [ %23, %19 ]
  br i1 %25, label %26, label %27

26:                                               ; preds = %24
  call void @_ZN9grpc_core17HPackEncoderTable8EvictOneEv(ptr noundef nonnull align 8 dereferenceable(40) %8)
  br label %15, !llvm.loop !47

27:                                               ; preds = %24
  %28 = load i32, ptr %5, align 4, !tbaa !21
  %29 = getelementptr inbounds nuw %"class.grpc_core::HPackEncoderTable", ptr %8, i32 0, i32 1
  store i32 %28, ptr %29, align 4, !tbaa !22
  call void @llvm.lifetime.start.p0(i64 8, ptr %6) #14
  %30 = load i32, ptr %5, align 4, !tbaa !21
  %31 = call noundef i32 @_ZN9grpc_core15hpack_constantsL15EntriesForBytesEj(i32 noundef %30) #14
  %32 = zext i32 %31 to i64
  store i64 %32, ptr %6, align 8, !tbaa !8
  %33 = load i64, ptr %6, align 8, !tbaa !8
  %34 = getelementptr inbounds nuw %"class.grpc_core::HPackEncoderTable", ptr %8, i32 0, i32 4
  %35 = call noundef i64 @_ZNKSt6vectorItSaItEE4sizeEv(ptr noundef nonnull align 8 dereferenceable(24) %34) #14
  %36 = icmp ugt i64 %33, %35
  br i1 %36, label %37, label %44

37:                                               ; preds = %27
  call void @llvm.lifetime.start.p0(i64 8, ptr %7) #14
  %38 = getelementptr inbounds nuw %"class.grpc_core::HPackEncoderTable", ptr %8, i32 0, i32 4
  %39 = call noundef i64 @_ZNKSt6vectorItSaItEE4sizeEv(ptr noundef nonnull align 8 dereferenceable(24) %38) #14
  %40 = mul i64 2, %39
  store i64 %40, ptr %7, align 8, !tbaa !8
  %41 = call noundef nonnull align 8 dereferenceable(8) ptr @_ZSt3maxImERKT_S2_S2_(ptr noundef nonnull align 8 dereferenceable(8) %6, ptr noundef nonnull align 8 dereferenceable(8) %7)
  %42 = load i64, ptr %41, align 8, !tbaa !8
  %43 = trunc i64 %42 to i32
  call void @_ZN9grpc_core17HPackEncoderTable7RebuildEj(ptr noundef nonnull align 8 dereferenceable(40) %8, i32 noundef %43)
  call void @llvm.lifetime.end.p0(i64 8, ptr %7) #14
  br label %44

44:                                               ; preds = %37, %27
  store i1 true, ptr %3, align 1
  call void @llvm.lifetime.end.p0(i64 8, ptr %6) #14
  br label %45

45:                                               ; preds = %44, %13
  %46 = load i1, ptr %3, align 1
  ret i1 %46
}