; Function Attrs: mustprogress uwtable
define noundef zeroext i1 @_ZN9grpc_core17HPackEncoderTable10SetMaxSizeEj(ptr noundef nonnull align 8 captures(none) dereferenceable(40) %0, i32 noundef %1) local_unnamed_addr #0 align 2 {
  %3 = getelementptr inbounds nuw i8, ptr %0, i64 4
  %4 = load i32, ptr %3, align 4, !tbaa !15
  %5 = icmp ne i32 %1, %4
  br i1 %5, label %.preheader, label %25

.preheader:                                       ; preds = %2
  %6 = getelementptr inbounds nuw i8, ptr %0, i64 12
  %7 = load i32, ptr %6, align 4, !tbaa !16
  %8 = icmp ugt i32 %7, %1
  br i1 %8, label %.lr.ph, label %.critedge

.lr.ph:                                           ; preds = %.preheader, %.lr.ph
  tail call void @_ZN9grpc_core17HPackEncoderTable8EvictOneEv(ptr noundef nonnull align 8 dereferenceable(40) %0)
  %9 = load i32, ptr %6, align 4, !tbaa !16
  %10 = icmp ugt i32 %9, %1
  br i1 %10, label %.lr.ph, label %.critedge, !llvm.loop !32

.critedge:                                        ; preds = %.lr.ph, %.preheader
  store i32 %1, ptr %3, align 4, !tbaa !15
  %11 = add i32 %1, 31
  %12 = lshr i32 %11, 5
  %13 = zext nneg i32 %12 to i64
  %14 = getelementptr inbounds nuw i8, ptr %0, i64 16
  %15 = getelementptr inbounds nuw i8, ptr %0, i64 24
  %16 = load ptr, ptr %15, align 8, !tbaa !20
  %17 = load ptr, ptr %14, align 8, !tbaa !21
  %18 = ptrtoint ptr %16 to i64
  %19 = ptrtoint ptr %17 to i64
  %20 = sub i64 %18, %19
  %21 = ashr exact i64 %20, 1
  %22 = icmp ult i64 %21, %13
  br i1 %22, label %23, label %25

23:                                               ; preds = %.critedge
  %.sroa.speculated = tail call i64 @llvm.umax.i64(i64 %20, i64 %13)
  %24 = trunc i64 %.sroa.speculated to i32
  tail call void @_ZN9grpc_core17HPackEncoderTable7RebuildEj(ptr noundef nonnull align 8 dereferenceable(40) %0, i32 noundef %24)
  br label %25

25:                                               ; preds = %.critedge, %23, %2
  ret i1 %5
}